target datalayout = "e-m:e-p270:32:32-p271:32:32-p272:64:64-i64:64-i128:128-f80:128-n8:16:32:64-S128"
target triple = "x86_64-pc-linux-gnu"

@hf_gtpv2_teid_c_spare = internal global i32 0, align 4
@dissect_gtpv2_sv_flags.sv_flags = internal constant [4 x ptr] [ptr @hf_gtpv2_sv_sti, ptr @hf_gtpv2_sv_ics, ptr @hf_gtpv2_sv_emind, ptr null], align 16

; Function Attrs: null_pointer_is_valid sspstrong uwtable
define internal void @dissect_gtpv2_sv_flags(ptr noundef %0, ptr noundef %1, ptr noundef %2, ptr noundef %3, i16 noundef zeroext %4, i8 noundef zeroext %5, i8 noundef zeroext %6, ptr noundef %7) #1 {
  %9 = alloca ptr, align 8
  %10 = alloca ptr, align 8
  %11 = alloca ptr, align 8
  %12 = alloca ptr, align 8
  %13 = alloca i16, align 2
  %14 = alloca i8, align 1
  %15 = alloca i8, align 1
  %16 = alloca ptr, align 8
  %17 = alloca i32, align 4
  store ptr %0, ptr %9, align 8
  store ptr %1, ptr %10, align 8
  store ptr %2, ptr %11, align 8
  store ptr %3, ptr %12, align 8
  store i16 %4, ptr %13, align 2
  store i8 %5, ptr %14, align 1
  store i8 %6, ptr %15, align 1
  store ptr %7, ptr %16, align 8
  call void @llvm.lifetime.start.p0(i64 4, ptr %17) #11
  store i32 0, ptr %17, align 4
  %18 = load ptr, ptr %11, align 8
  %19 = load ptr, ptr %9, align 8
  %20 = load i32, ptr %17, align 4
  call void @proto_tree_add_bitmask_list(ptr noundef %18, ptr noundef %19, i32 noundef %20, i32 noundef 1, ptr noundef @dissect_gtpv2_sv_flags.sv_flags, i32 noundef 0)
  %21 = load i32, ptr %17, align 4
  %22 = add i32 %21, 1
  store i32 %22, ptr %17, align 4
  %23 = load i16, ptr %13, align 2
  %24 = zext i16 %23 to i32
  %25 = icmp sgt i32 %24, 1
  br i1 %25, label %26, label %35

26:                                               ; preds = %8
  %27 = load ptr, ptr %11, align 8
  %28 = load i32, ptr @hf_gtpv2_teid_c_spare, align 4
  %29 = load ptr, ptr %9, align 8
  %30 = load i32, ptr %17, align 4
  %31 = load i16, ptr %13, align 2
  %32 = zext i16 %31 to i32
  %33 = sub i32 %32, 1
  %34 = call ptr @proto_tree_add_item(ptr noundef %27, i32 noundef %28, ptr noundef %29, i32 noundef %30, i32 noundef %33, i32 noundef 0)
  br label %35

35:                                               ; preds = %26, %8
  call void @llvm.lifetime.end.p0(i64 4, ptr %17) #11
  ret void
}