; Function Attrs: null_pointer_is_valid sspstrong uwtable
define internal void @dissect_gtpv2_sv_flags(ptr noundef %0, ptr readnone captures(none) %1, ptr noundef %2, ptr readnone captures(none) %3, i16 noundef zeroext %4, i8 zeroext %5, i8 zeroext %6, ptr readnone captures(none) %7) #1 {
  tail call void @proto_tree_add_bitmask_list(ptr noundef %2, ptr noundef %0, i32 noundef 0, i32 noundef 1, ptr noundef nonnull @dissect_gtpv2_sv_flags.sv_flags, i32 noundef 0)
  %9 = icmp ugt i16 %4, 1
  br i1 %9, label %10, label %15

10:                                               ; preds = %8
  %11 = zext i16 %4 to i32
  %12 = load i32, ptr @hf_gtpv2_teid_c_spare, align 4
  %13 = add nsw i32 %11, -1
  %14 = tail call ptr @proto_tree_add_item(ptr noundef %2, i32 noundef %12, ptr noundef %0, i32 noundef 1, i32 noundef %13, i32 noundef 0)
  br label %15

15:                                               ; preds = %10, %8
  ret void
}